; Function Attrs: nounwind uwtable
define internal noundef ptr @H5O__mdci_copy(ptr nocapture noundef readonly %0, ptr noundef writeonly %1) #0 {
  %.not = icmp eq ptr %1, null
  br i1 %.not, label %3, label %10

3:                                                ; preds = %2
  %4 = tail call noalias ptr @H5FL_reg_malloc(ptr noundef nonnull @H5_H5O_mdci_t_reg_free_list) #5
  %5 = icmp eq ptr %4, null
  br i1 %5, label %6, label %10

6:                                                ; preds = %3
  %7 = load i64, ptr @H5E_RESOURCE_g, align 8
  %8 = load i64, ptr @H5E_NOSPACE_g, align 8
  %9 = tail call i32 (ptr, ptr, i32, i64, i64, ptr, ...) @H5E_printf_stack(ptr noundef nonnull @.str.1, ptr noundef nonnull @__func__.H5O__mdci_copy, i32 noundef 182, i64 noundef %7, i64 noundef %8, ptr noundef nonnull @.str.6) #5
  br label %11

10:                                               ; preds = %3, %2
  %.07 = phi ptr [ %1, %2 ], [ %4, %3 ]
  tail call void @llvm.memcpy.p0.p0.i64(ptr noundef nonnull align 8 dereferenceable(16) %.07, ptr noundef nonnull align 8 dereferenceable(16) %0, i64 16, i1 false)
  br label %11

11:                                               ; preds = %10, %6
  %.0 = phi ptr [ %.07, %10 ], [ null, %6 ]
  ret ptr %.0
}